; ModuleID = '38/1189.c'
source_filename = "38/1189.c"
target datalayout = "e-m:e-p270:32:32-p271:32:32-p272:64:64-i64:64-f80:128-n8:16:32:64-S128"
target triple = "x86_64-pc-linux-gnu"

@.str = private unnamed_addr constant [3 x i8] c"%d\00", align 1
@.str.1 = private unnamed_addr constant [3 x i8] c"%f\00", align 1
@.str.2 = private unnamed_addr constant [7 x i8] c"%.5lf\0A\00", align 1

; Function Attrs: noinline nounwind uwtable
define dso_local i32 @main(i32 %0, i8** %1) #0 {
  %3 = alloca i32, align 4
  %4 = alloca i32, align 4
  %5 = alloca i8**, align 8
  %6 = alloca i32, align 4
  %7 = alloca i32, align 4
  %8 = alloca i32, align 4
  %9 = alloca [100 x float], align 16
  %10 = alloca i32, align 4
  %11 = alloca float, align 4
  %12 = alloca double, align 8
  store i32 0, i32* %3, align 4
  store i32 %0, i32* %4, align 4
  store i8** %1, i8*** %5, align 8
  %13 = call i32 (i8*, ...) @__isoc99_scanf(i8* getelementptr inbounds ([3 x i8], [3 x i8]* @.str, i64 0, i64 0), i32* %6)
  store i32 1, i32* %8, align 4
  br label %14

14:                                               ; preds = %89, %2
  %15 = load i32, i32* %8, align 4
  %16 = load i32, i32* %6, align 4
  %17 = icmp sle i32 %15, %16
  br i1 %17, label %18, label %92

18:                                               ; preds = %14
  %19 = call i32 (i8*, ...) @__isoc99_scanf(i8* getelementptr inbounds ([3 x i8], [3 x i8]* @.str, i64 0, i64 0), i32* %7)
  store i32 0, i32* %10, align 4
  br label %20

20:                                               ; preds = %30, %18
  %21 = load i32, i32* %10, align 4
  %22 = load i32, i32* %7, align 4
  %23 = icmp slt i32 %21, %22
  br i1 %23, label %24, label %33

24:                                               ; preds = %20
  %25 = getelementptr inbounds [100 x float], [100 x float]* %9, i64 0, i64 0
  %26 = load i32, i32* %10, align 4
  %27 = sext i32 %26 to i64
  %28 = getelementptr inbounds float, float* %25, i64 %27
  %29 = call i32 (i8*, ...) @__isoc99_scanf(i8* getelementptr inbounds ([3 x i8], [3 x i8]* @.str.1, i64 0, i64 0), float* %28)
  br label %30

30:                                               ; preds = %24
  %31 = load i32, i32* %10, align 4
  %32 = add nsw i32 %31, 1
  store i32 %32, i32* %10, align 4
  br label %20

33:                                               ; preds = %20
  store float 0.000000e+00, float* %11, align 4
  store i32 0, i32* %10, align 4
  br label %34

34:                                               ; preds = %46, %33
  %35 = load i32, i32* %10, align 4
  %36 = load i32, i32* %7, align 4
  %37 = icmp slt i32 %35, %36
  br i1 %37, label %38, label %49

38:                                               ; preds = %34
  %39 = load float, float* %11, align 4
  %40 = getelementptr inbounds [100 x float], [100 x float]* %9, i64 0, i64 0
  %41 = load i32, i32* %10, align 4
  %42 = sext i32 %41 to i64
  %43 = getelementptr inbounds float, float* %40, i64 %42
  %44 = load float, float* %43, align 4
  %45 = fadd float %39, %44
  store float %45, float* %11, align 4
  br label %46

46:                                               ; preds = %38
  %47 = load i32, i32* %10, align 4
  %48 = add nsw i32 %47, 1
  store i32 %48, i32* %10, align 4
  br label %34

49:                                               ; preds = %34
  %50 = load float, float* %11, align 4
  %51 = load i32, i32* %7, align 4
  %52 = sitofp i32 %51 to float
  %53 = fdiv float %50, %52
  store float %53, float* %11, align 4
  store double 0.000000e+00, double* %12, align 8
  store i32 0, i32* %10, align 4
  br label %54

54:                                               ; preds = %77, %49
  %55 = load i32, i32* %10, align 4
  %56 = load i32, i32* %7, align 4
  %57 = icmp slt i32 %55, %56
  br i1 %57, label %58, label %80

58:                                               ; preds = %54
  %59 = load double, double* %12, align 8
  %60 = getelementptr inbounds [100 x float], [100 x float]* %9, i64 0, i64 0
  %61 = load i32, i32* %10, align 4
  %62 = sext i32 %61 to i64
  %63 = getelementptr inbounds float, float* %60, i64 %62
  %64 = load float, float* %63, align 4
  %65 = load float, float* %11, align 4
  %66 = fsub float %64, %65
  %67 = getelementptr inbounds [100 x float], [100 x float]* %9, i64 0, i64 0
  %68 = load i32, i32* %10, align 4
  %69 = sext i32 %68 to i64
  %70 = getelementptr inbounds float, float* %67, i64 %69
  %71 = load float, float* %70, align 4
  %72 = load float, float* %11, align 4
  %73 = fsub float %71, %72
  %74 = fmul float %66, %73
  %75 = fpext float %74 to double
  %76 = fadd double %59, %75
  store double %76, double* %12, align 8
  br label %77

77:                                               ; preds = %58
  %78 = load i32, i32* %10, align 4
  %79 = add nsw i32 %78, 1
  store i32 %79, i32* %10, align 4
  br label %54

80:                                               ; preds = %54
  %81 = load double, double* %12, align 8
  %82 = load i32, i32* %7, align 4
  %83 = sitofp i32 %82 to double
  %84 = fdiv double %81, %83
  store double %84, double* %12, align 8
  %85 = load double, double* %12, align 8
  %86 = call double @sqrt(double %85) #3
  store double %86, double* %12, align 8
  %87 = load double, double* %12, align 8
  %88 = call i32 (i8*, ...) @printf(i8* getelementptr inbounds ([7 x i8], [7 x i8]* @.str.2, i64 0, i64 0), double %87)
  br label %89

89:                                               ; preds = %80
  %90 = load i32, i32* %8, align 4
  %91 = add nsw i32 %90, 1
  store i32 %91, i32* %8, align 4
  br label %14

92:                                               ; preds = %14
  ret i32 0
}

declare dso_local i32 @__isoc99_scanf(i8*, ...) #1

; Function Attrs: nounwind
declare dso_local double @sqrt(double) #2

declare dso_local i32 @printf(i8*, ...) #1


!llvm.module.flags = !{!0}
!llvm.ident = !{!1}

!0 = !{i32 1, !"wchar_size", i32 4}
!1 = !{!"clang version 10.0.0-4ubuntu1 "}
